(lp1
I3
a(dp2
I1
(dp3
S'points'
p4
I4
sS'results'
p5
(lp6
I-1
aI0
aI1
asS'name'
p7
S'Jeff'
p8
sS'opponents'
p9
c__builtin__
set
p10
((lp11
I8
aI17
aI15
atRp12
ssI2
(dp13
g4
I3
sg5
(lp14
I0
aI0
aI0
asg7
S'Timmy'
p15
sg9
g10
((lp16
I16
aI11
aI5
atRp17
ssI3
(dp18
g4
I5
sg5
(lp19
I1
aI0
aI0
asg7
S'John'
p20
sg9
g10
((lp21
I16
aI14
aI15
atRp22
ssI4
(dp23
g4
I4
sg5
(lp24
I-1
aI0
aI1
asg7
S'Blarg'
p25
sg9
g10
((lp26
S'bye'
p27
aI12
aI14
atRp28
ssI5
(dp29
g4
I4
sg5
(lp30
I1
aI-1
aI0
asg7
S'Yeti'
p31
sg9
g10
((lp32
I2
aI13
aI6
atRp33
ssI6
(dp34
g4
I7
sg5
(lp35
I1
aI1
aI0
asg7
S'Yugen'
p36
sg9
g10
((lp37
I17
aI12
aI5
atRp38
ssI7
(dp39
g4
I5
sg5
(lp40
I0
aI1
aI0
asg7
S'Blogger'
p41
sg9
g10
((lp42
I10
aI11
aI13
atRp43
ssI8
(dp44
g4
I1
sg5
(lp45
I0
aI-1
aI-1
asg7
S'Kelly'
p46
sg9
g10
((lp47
I16
aI1
aI10
atRp48
ssI9
(dp49
g4
I4
sg5
(lp50
I1
aI0
aI-1
asg7
S'Clark'
p51
sg9
g10
((lp52
I17
ag27
aI14
atRp53
ssI10
(dp54
g4
I2
sg5
(lp55
I0
aI-1
aI0
asg7
S'James'
p56
sg9
g10
((lp57
I8
aI12
aI7
atRp58
ssI11
(dp59
g4
I3
sg5
(lp60
I0
aI0
aI0
asg7
S'Jonny'
p61
sg9
g10
((lp62
I2
aI15
aI7
atRp63
ssI12
(dp64
g4
I2
sg5
(lp65
I-1
aI0
aI0
asg7
S'Jacob'
p66
sg9
g10
((lp67
I10
aI4
aI6
atRp68
ssI13
(dp69
g4
I4
sg5
(lp70
I-1
aI1
aI0
asg7
S'Kristi'
p71
sg9
g10
((lp72
g27
aI5
aI7
atRp73
ssI14
(dp74
g4
I7
sg5
(lp75
I1
aI0
aI1
asg7
S'Brian'
p76
sg9
g10
((lp77
I9
aI3
aI4
atRp78
ssI15
(dp79
g4
I2
sg5
(lp80
I-1
aI0
aI0
asg7
S'Johnson'
p81
sg9
g10
((lp82
I11
aI1
aI3
atRp83
ssI16
(dp84
g4
I5
sg5
(lp85
I0
aI1
aI0
asg7
S'Kenny'
p86
sg9
g10
((lp87
I8
aI2
aI3
atRp88
ssI17
(dp89
g4
I5
sg5
(lp90
I1
aI0
aI0
asg7
S'Carrie'
p91
sg9
g10
((lp92
I1
aI6
aI9
atRp93
ssa.