(lp1
I2
a(dp2
I1
(dp3
S'points'
p4
I1
sS'results'
p5
(lp6
I-1
aI0
asS'name'
p7
S'Jeff'
p8
sS'opponents'
p9
c__builtin__
set
p10
((lp11
I17
aI15
atRp12
ssI2
(dp13
g4
I2
sg5
(lp14
I0
aI0
asg7
S'Timmy'
p15
sg9
g10
((lp16
I16
aI11
atRp17
ssI3
(dp18
g4
I4
sg5
(lp19
I1
aI0
asg7
S'John'
p20
sg9
g10
((lp21
I14
aI15
atRp22
ssI4
(dp23
g4
I1
sg5
(lp24
I-1
aI0
asg7
S'Blarg'
p25
sg9
g10
((lp26
I12
aI14
atRp27
ssI5
(dp28
g4
I3
sg5
(lp29
I1
aI-1
asg7
S'Yeti'
p30
sg9
g10
((lp31
I13
aI6
atRp32
ssI6
(dp33
g4
I6
sg5
(lp34
I1
aI1
asg7
S'Yugen'
p35
sg9
g10
((lp36
I12
aI5
atRp37
ssI7
(dp38
g4
I4
sg5
(lp39
I0
aI1
asg7
S'Blogger'
p40
sg9
g10
((lp41
I10
aI11
atRp42
ssI8
(dp43
g4
I1
sg5
(lp44
I0
aI-1
asg7
S'Kelly'
p45
sg9
g10
((lp46
I16
aI10
atRp47
ssI9
(dp48
g4
I4
sg5
(lp49
I1
aI0
asg7
S'Clark'
p50
sg9
g10
((lp51
I17
aS'bye'
p52
atRp53
ssI10
(dp54
g4
I1
sg5
(lp55
I0
aI-1
asg7
S'James'
p56
sg9
g10
((lp57
I8
aI7
atRp58
ssI11
(dp59
g4
I2
sg5
(lp60
I0
aI0
asg7
S'Jonny'
p61
sg9
g10
((lp62
I2
aI7
atRp63
ssI12
(dp64
g4
I1
sg5
(lp65
I-1
aI0
asg7
S'Jacob'
p66
sg9
g10
((lp67
I4
aI6
atRp68
ssI13
(dp69
g4
I3
sg5
(lp70
I-1
aI1
asg7
S'Kristi'
p71
sg9
g10
((lp72
g52
aI5
atRp73
ssI14
(dp74
g4
I4
sg5
(lp75
I1
aI0
asg7
S'Brian'
p76
sg9
g10
((lp77
I3
aI4
atRp78
ssI15
(dp79
g4
I1
sg5
(lp80
I-1
aI0
asg7
S'Johnson'
p81
sg9
g10
((lp82
I1
aI3
atRp83
ssI16
(dp84
g4
I4
sg5
(lp85
I0
aI1
asg7
S'Kenny'
p86
sg9
g10
((lp87
I8
aI2
atRp88
ssI17
(dp89
g4
I4
sg5
(lp90
I1
aI0
asg7
S'Carrie'
p91
sg9
g10
((lp92
I1
aI9
atRp93
ssa.