(lp1
I5
a(dp2
I1
(dp3
S'points'
p4
I4
sS'results'
p5
(lp6
I-1
aI0
aI1
aI-1
aI-1
asS'name'
p7
S'Jeff'
p8
sS'opponents'
p9
c__builtin__
set
p10
((lp11
I8
aI17
aI11
aI9
aI15
atRp12
ssI2
(dp13
g4
I9
sg5
(lp14
I0
aI0
aI0
aI1
aI1
asg7
S'Timmy'
p15
sg9
g10
((lp16
I16
aI3
aI11
aI5
aI13
atRp17
ssI3
(dp18
g4
I6
sg5
(lp19
I1
aI0
aI0
aI0
aI-1
asg7
S'John'
p20
sg9
g10
((lp21
I16
aI17
aI2
aI14
aI15
atRp22
ssI4
(dp23
g4
I7
sg5
(lp24
I-1
aI0
aI1
aI1
aI-1
asg7
S'Blarg'
p25
sg9
g10
((lp26
I9
aS'bye'
p27
aI12
aI5
aI14
atRp28
ssI5
(dp29
g4
I4
sg5
(lp30
I1
aI-1
aI0
aI-1
aI-1
asg7
S'Yeti'
p31
sg9
g10
((lp32
I8
aI2
aI4
aI13
aI6
atRp33
ssI6
(dp34
g4
I13
sg5
(lp35
I1
aI1
aI0
aI1
aI1
asg7
S'Yugen'
p36
sg9
g10
((lp37
I17
aI12
aI5
aI14
aI7
atRp38
ssI7
(dp39
g4
I8
sg5
(lp40
I0
aI1
aI0
aI1
aI-1
asg7
S'Blogger'
p41
sg9
g10
((lp42
I16
aI10
aI11
aI13
aI6
atRp43
ssI8
(dp44
g4
I7
sg5
(lp45
I0
aI-1
aI-1
aI1
aI1
asg7
S'Kelly'
p46
sg9
g10
((lp47
I16
aI1
aI10
ag27
aI5
atRp48
ssI9
(dp49
g4
I10
sg5
(lp50
I1
aI0
aI-1
aI1
aI1
asg7
S'Clark'
p51
sg9
g10
((lp52
I17
ag27
aI4
aI14
aI1
atRp53
ssI10
(dp54
g4
I6
sg5
(lp55
I0
aI-1
aI0
aI1
aI0
asg7
S'James'
p56
sg9
g10
((lp57
I8
aI15
aI12
aI13
aI7
atRp58
ssI11
(dp59
g4
I6
sg5
(lp60
I0
aI0
aI0
aI-1
aI1
asg7
S'Jonny'
p61
sg9
g10
((lp62
I1
aI2
aI15
aI12
aI7
atRp63
ssI12
(dp64
g4
I5
sg5
(lp65
I-1
aI0
aI0
aI1
aI-1
asg7
S'Jacob'
p66
sg9
g10
((lp67
I16
aI10
aI11
aI4
aI6
atRp68
ssI13
(dp69
g4
I5
sg5
(lp70
I-1
aI1
aI0
aI-1
aI0
asg7
S'Kristi'
p71
sg9
g10
((lp72
I10
aI2
ag27
aI5
aI7
atRp73
ssI14
(dp74
g4
I10
sg5
(lp75
I1
aI0
aI1
aI-1
aI1
asg7
S'Brian'
p76
sg9
g10
((lp77
I9
aI3
aI4
aI6
aI17
atRp78
ssI15
(dp79
g4
I5
sg5
(lp80
I-1
aI0
aI0
aI-1
aI1
asg7
S'Johnson'
p81
sg9
g10
((lp82
I11
aI1
aI10
aI3
ag27
atRp83
ssI16
(dp84
g4
I8
sg5
(lp85
I0
aI1
aI0
aI-1
aI1
asg7
S'Kenny'
p86
sg9
g10
((lp87
I8
aI2
aI3
aI12
aI7
atRp88
ssI17
(dp89
g4
I6
sg5
(lp90
I1
aI0
aI0
aI0
aI-1
asg7
S'Carrie'
p91
sg9
g10
((lp92
I1
aI3
aI14
aI6
aI9
atRp93
ssa.