(lp1
I1
a(dp2
I1
(dp3
S'points'
p4
I0
sS'results'
p5
(lp6
I-1
asS'name'
p7
S'Jeff'
p8
sS'opponents'
p9
c__builtin__
set
p10
((lp11
I17
atRp12
ssI2
(dp13
g4
I1
sg5
(lp14
I0
asg7
S'Timmy'
p15
sg9
g10
((lp16
I16
atRp17
ssI3
(dp18
g4
I3
sg5
(lp19
I1
asg7
S'John'
p20
sg9
g10
((lp21
I15
atRp22
ssI4
(dp23
g4
I0
sg5
(lp24
I-1
asg7
S'Blarg'
p25
sg9
g10
((lp26
I14
atRp27
ssI5
(dp28
g4
I3
sg5
(lp29
I1
asg7
S'Yeti'
p30
sg9
g10
((lp31
I13
atRp32
ssI6
(dp33
g4
I3
sg5
(lp34
I1
asg7
S'Yugen'
p35
sg9
g10
((lp36
I12
atRp37
ssI7
(dp38
g4
I1
sg5
(lp39
I0
asg7
S'Blogger'
p40
sg9
g10
((lp41
I11
atRp42
ssI8
(dp43
g4
I1
sg5
(lp44
I0
asg7
S'Kelly'
p45
sg9
g10
((lp46
I10
atRp47
ssI9
(dp48
g4
I3
sg5
(lp49
I1
asg7
S'Clark'
p50
sg9
g10
((lp51
S'bye'
p52
atRp53
ssI10
(dp54
g4
I1
sg5
(lp55
I0
asg7
S'James'
p56
sg9
g10
((lp57
I8
atRp58
ssI11
(dp59
g4
I1
sg5
(lp60
I0
asg7
S'Jonny'
p61
sg9
g10
((lp62
I7
atRp63
ssI12
(dp64
g4
I0
sg5
(lp65
I-1
asg7
S'Jacob'
p66
sg9
g10
((lp67
I6
atRp68
ssI13
(dp69
g4
I0
sg5
(lp70
I-1
asg7
S'Kristi'
p71
sg9
g10
((lp72
I5
atRp73
ssI14
(dp74
g4
I3
sg5
(lp75
I1
asg7
S'Brian'
p76
sg9
g10
((lp77
I4
atRp78
ssI15
(dp79
g4
I0
sg5
(lp80
I-1
asg7
S'Johnson'
p81
sg9
g10
((lp82
I3
atRp83
ssI16
(dp84
g4
I1
sg5
(lp85
I0
asg7
S'Kenny'
p86
sg9
g10
((lp87
I2
atRp88
ssI17
(dp89
g4
I3
sg5
(lp90
I1
asg7
S'Carrie'
p91
sg9
g10
((lp92
I1
atRp93
ssa.